; Function Attrs: mustprogress nofree norecurse nosync nounwind memory(readwrite, inaccessiblemem: none) uwtable
define void @_ZN10OpenSubdiv6v3_6_03Vtr8internal14FVarRefinement17propagateEdgeTagsEv(ptr noundef nonnull readonly align 8 captures(none) dereferenceable(64) %0) local_unnamed_addr #5 align 2 {
  %2 = load ptr, ptr %0, align 8
  %3 = getelementptr inbounds nuw i8, ptr %2, i64 44
  %4 = load i32, ptr %3, align 4
  %5 = icmp sgt i32 %4, 0
  br i1 %5, label %.lr.ph, label %.preheader

.lr.ph:                                           ; preds = %1
  %6 = getelementptr inbounds nuw i8, ptr %0, i64 32
  br label %15

.preheader:                                       ; preds = %15, %1
  %.lcssa = phi i32 [ %4, %1 ], [ %22, %15 ]
  %7 = getelementptr inbounds nuw i8, ptr %0, i64 24
  %8 = load ptr, ptr %7, align 8
  %9 = getelementptr inbounds nuw i8, ptr %8, i64 4
  %10 = load i32, ptr %9, align 4
  %11 = icmp slt i32 %.lcssa, %10
  br i1 %11, label %.lr.ph12, label %._crit_edge

.lr.ph12:                                         ; preds = %.preheader
  %12 = getelementptr inbounds nuw i8, ptr %0, i64 16
  %13 = getelementptr inbounds nuw i8, ptr %0, i64 32
  %14 = sext i32 %.lcssa to i64
  br label %25

15:                                               ; preds = %.lr.ph, %15
  %indvars.iv = phi i64 [ 0, %.lr.ph ], [ %indvars.iv.next, %15 ]
  %16 = load ptr, ptr %6, align 8
  %17 = getelementptr inbounds nuw i8, ptr %16, i64 48
  %18 = load ptr, ptr %17, align 8
  %19 = getelementptr inbounds nuw %"struct.OpenSubdiv::v3_6_0::Vtr::internal::FVarLevel::ETag", ptr %18, i64 %indvars.iv
  store i8 0, ptr %19, align 1
  %indvars.iv.next = add nuw nsw i64 %indvars.iv, 1
  %20 = load ptr, ptr %0, align 8
  %21 = getelementptr inbounds nuw i8, ptr %20, i64 44
  %22 = load i32, ptr %21, align 4
  %23 = sext i32 %22 to i64
  %24 = icmp slt i64 %indvars.iv.next, %23
  br i1 %24, label %15, label %.preheader, !llvm.loop !5

25:                                               ; preds = %.lr.ph12, %25
  %indvars.iv15 = phi i64 [ %14, %.lr.ph12 ], [ %indvars.iv.next16, %25 ]
  %26 = load ptr, ptr %0, align 8
  %27 = getelementptr inbounds nuw i8, ptr %26, i64 288
  %28 = load ptr, ptr %27, align 8
  %29 = getelementptr inbounds i32, ptr %28, i64 %indvars.iv15
  %30 = load i32, ptr %29, align 4
  %31 = load ptr, ptr %12, align 8
  %32 = getelementptr inbounds nuw i8, ptr %31, i64 48
  %33 = sext i32 %30 to i64
  %34 = load ptr, ptr %32, align 8
  %35 = getelementptr inbounds %"struct.OpenSubdiv::v3_6_0::Vtr::internal::FVarLevel::ETag", ptr %34, i64 %33
  %36 = load ptr, ptr %13, align 8
  %37 = getelementptr inbounds nuw i8, ptr %36, i64 48
  %38 = load ptr, ptr %37, align 8
  %39 = getelementptr inbounds %"struct.OpenSubdiv::v3_6_0::Vtr::internal::FVarLevel::ETag", ptr %38, i64 %indvars.iv15
  %40 = load i8, ptr %35, align 1
  store i8 %40, ptr %39, align 1
  %indvars.iv.next16 = add nsw i64 %indvars.iv15, 1
  %41 = load ptr, ptr %7, align 8
  %42 = getelementptr inbounds nuw i8, ptr %41, i64 4
  %43 = load i32, ptr %42, align 4
  %44 = sext i32 %43 to i64
  %45 = icmp slt i64 %indvars.iv.next16, %44
  br i1 %45, label %25, label %._crit_edge, !llvm.loop !7

._crit_edge:                                      ; preds = %25, %.preheader
  ret void
}